target datalayout = "e-m:e-p270:32:32-p271:32:32-p272:64:64-i64:64-i128:128-f80:128-n8:16:32:64-S128"
target triple = "x86_64-pc-linux-gnu"

%struct.PJconsts = type { ptr, ptr, ptr, ptr, ptr, ptr, ptr, ptr, ptr, ptr, ptr, ptr, i32, ptr, ptr, ptr, ptr, ptr, ptr, ptr, ptr, double, double, double, double, double, double, double, double, double, double, double, double, double, double, double, double, double, double, double, double, double, double, i32, i32, i32, i32, i32, i32, i32, i32, i32, i32, i32, ptr, ptr, ptr, ptr, ptr, ptr, double, double, double, double, double, double, double, double, double, double, double, i32, [7 x double], i32, ptr, ptr, double, double, i32, [4 x i8], %"class.std::shared_ptr", i8, double, i8, %"class.std::__cxx11::basic_string", %"class.std::__cxx11::basic_string", %"class.std::__cxx11::basic_string", i8, %"class.std::vector", i32, %"class.std::vector.3", i32, i8, i8, i8, ptr }
%"class.std::shared_ptr" = type { %"class.std::__shared_ptr" }
%"class.std::__shared_ptr" = type { ptr, %"class.std::__shared_count" }
%"class.std::__shared_count" = type { ptr }
%"class.std::__cxx11::basic_string" = type { %"struct.std::__cxx11::basic_string<char>::_Alloc_hider", i64, %union.anon }
%"struct.std::__cxx11::basic_string<char>::_Alloc_hider" = type { ptr }
%union.anon = type { i64, [8 x i8] }
%"class.std::vector" = type { %"struct.std::_Vector_base" }
%"struct.std::_Vector_base" = type { %"struct.std::_Vector_base<osgeo::proj::operation::GridDescription, std::allocator<osgeo::proj::operation::GridDescription>>::_Vector_impl" }
%"struct.std::_Vector_base<osgeo::proj::operation::GridDescription, std::allocator<osgeo::proj::operation::GridDescription>>::_Vector_impl" = type { %"struct.std::_Vector_base<osgeo::proj::operation::GridDescription, std::allocator<osgeo::proj::operation::GridDescription>>::_Vector_impl_data" }
%"struct.std::_Vector_base<osgeo::proj::operation::GridDescription, std::allocator<osgeo::proj::operation::GridDescription>>::_Vector_impl_data" = type { ptr, ptr, ptr }
%"class.std::vector.3" = type { %"struct.std::_Vector_base.4" }
%"struct.std::_Vector_base.4" = type { %"struct.std::_Vector_base<PJCoordOperation, std::allocator<PJCoordOperation>>::_Vector_impl" }
%"struct.std::_Vector_base<PJCoordOperation, std::allocator<PJCoordOperation>>::_Vector_impl" = type { %"struct.std::_Vector_base<PJCoordOperation, std::allocator<PJCoordOperation>>::_Vector_impl_data" }
%"struct.std::_Vector_base<PJCoordOperation, std::allocator<PJCoordOperation>>::_Vector_impl_data" = type { ptr, ptr, ptr }
%"struct.(anonymous namespace)::pj_ortho_data" = type { double, double, double, double, double, i32, double, double }
%struct.PJ_LP = type { double, double }
%struct.PJ_XY = type { double, double }

; Function Attrs: mustprogress uwtable
define internal { double, double } @_ZL15ortho_s_inverse5PJ_XYP8PJconsts(double %0, double %1, ptr noundef %2) #0 {
  %4 = alloca %struct.PJ_LP, align 8
  %5 = alloca %struct.PJ_XY, align 8
  %6 = alloca ptr, align 8
  %7 = alloca ptr, align 8
  %8 = alloca double, align 8
  %9 = alloca double, align 8
  %10 = alloca double, align 8
  %11 = alloca double, align 8
  %12 = alloca i32, align 4
  %13 = alloca double, align 8
  %14 = getelementptr inbounds nuw { double, double }, ptr %5, i32 0, i32 0
  store double %0, ptr %14, align 8
  %15 = getelementptr inbounds nuw { double, double }, ptr %5, i32 0, i32 1
  store double %1, ptr %15, align 8
  store ptr %2, ptr %6, align 8, !tbaa !3
  call void @llvm.lifetime.start.p0(i64 8, ptr %7) #8
  %16 = load ptr, ptr %6, align 8, !tbaa !3
  %17 = getelementptr inbounds nuw %struct.PJconsts, ptr %16, i32 0, i32 11
  %18 = load ptr, ptr %17, align 8, !tbaa !43
  store ptr %18, ptr %7, align 8, !tbaa !41
  call void @llvm.lifetime.start.p0(i64 8, ptr %8) #8
  %19 = getelementptr inbounds nuw %struct.PJ_LP, ptr %4, i32 0, i32 0
  store double 0x7FF0000000000000, ptr %19, align 8, !tbaa !63
  %20 = getelementptr inbounds nuw %struct.PJ_LP, ptr %4, i32 0, i32 1
  store double 0x7FF0000000000000, ptr %20, align 8, !tbaa !65
  call void @llvm.lifetime.start.p0(i64 8, ptr %9) #8
  %21 = getelementptr inbounds nuw %struct.PJ_XY, ptr %5, i32 0, i32 0
  %22 = load double, ptr %21, align 8, !tbaa !66
  store double %22, ptr %9, align 8, !tbaa !60
  call void @llvm.lifetime.start.p0(i64 8, ptr %10) #8
  %23 = getelementptr inbounds nuw %struct.PJ_XY, ptr %5, i32 0, i32 1
  %24 = load double, ptr %23, align 8, !tbaa !68
  store double %24, ptr %10, align 8, !tbaa !60
  %25 = load ptr, ptr %7, align 8, !tbaa !41
  %26 = getelementptr inbounds nuw %"struct.(anonymous namespace)::pj_ortho_data", ptr %25, i32 0, i32 7
  %27 = load double, ptr %26, align 8, !tbaa !62
  %28 = load double, ptr %9, align 8, !tbaa !60
  %29 = load ptr, ptr %7, align 8, !tbaa !41
  %30 = getelementptr inbounds nuw %"struct.(anonymous namespace)::pj_ortho_data", ptr %29, i32 0, i32 6
  %31 = load double, ptr %30, align 8, !tbaa !61
  %32 = load double, ptr %10, align 8, !tbaa !60
  %33 = fmul double %31, %32
  %34 = call double @llvm.fmuladd.f64(double %27, double %28, double %33)
  %35 = load ptr, ptr %6, align 8, !tbaa !3
  %36 = getelementptr inbounds nuw %struct.PJconsts, ptr %35, i32 0, i32 66
  %37 = load double, ptr %36, align 8, !tbaa !69
  %38 = fdiv double %34, %37
  %39 = getelementptr inbounds nuw %struct.PJ_XY, ptr %5, i32 0, i32 0
  store double %38, ptr %39, align 8, !tbaa !66
  %40 = load ptr, ptr %7, align 8, !tbaa !41
  %41 = getelementptr inbounds nuw %"struct.(anonymous namespace)::pj_ortho_data", ptr %40, i32 0, i32 6
  %42 = load double, ptr %41, align 8, !tbaa !61
  %43 = fneg double %42
  %44 = load double, ptr %9, align 8, !tbaa !60
  %45 = load ptr, ptr %7, align 8, !tbaa !41
  %46 = getelementptr inbounds nuw %"struct.(anonymous namespace)::pj_ortho_data", ptr %45, i32 0, i32 7
  %47 = load double, ptr %46, align 8, !tbaa !62
  %48 = load double, ptr %10, align 8, !tbaa !60
  %49 = fmul double %47, %48
  %50 = call double @llvm.fmuladd.f64(double %43, double %44, double %49)
  %51 = load ptr, ptr %6, align 8, !tbaa !3
  %52 = getelementptr inbounds nuw %struct.PJconsts, ptr %51, i32 0, i32 66
  %53 = load double, ptr %52, align 8, !tbaa !69
  %54 = fdiv double %50, %53
  %55 = getelementptr inbounds nuw %struct.PJ_XY, ptr %5, i32 0, i32 1
  store double %54, ptr %55, align 8, !tbaa !68
  call void @llvm.lifetime.start.p0(i64 8, ptr %11) #8
  %56 = getelementptr inbounds nuw %struct.PJ_XY, ptr %5, i32 0, i32 0
  %57 = load double, ptr %56, align 8, !tbaa !66
  %58 = getelementptr inbounds nuw %struct.PJ_XY, ptr %5, i32 0, i32 1
  %59 = load double, ptr %58, align 8, !tbaa !68
  %60 = call double @hypot(double noundef %57, double noundef %59) #8, !tbaa !45
  store double %60, ptr %11, align 8, !tbaa !60
  %61 = load double, ptr %11, align 8, !tbaa !60
  store double %61, ptr %8, align 8, !tbaa !60
  %62 = load double, ptr %8, align 8, !tbaa !60
  %63 = fcmp ogt double %62, 1.000000e+00
  br i1 %63, label %64, label %72

64:                                               ; preds = %3
  %65 = load double, ptr %8, align 8, !tbaa !60
  %66 = fsub double %65, 1.000000e+00
  %67 = fcmp ogt double %66, 1.000000e-10
  br i1 %67, label %68, label %71

68:                                               ; preds = %64
  %69 = load ptr, ptr %6, align 8, !tbaa !3
  %70 = call i32 @proj_errno_set(ptr noundef %69, i32 noundef 2050)
  store i32 1, ptr %12, align 4
  br label %209

71:                                               ; preds = %64
  store double 1.000000e+00, ptr %8, align 8, !tbaa !60
  br label %72

72:                                               ; preds = %71, %3
  call void @llvm.lifetime.start.p0(i64 8, ptr %13) #8
  %73 = load double, ptr %8, align 8, !tbaa !60
  %74 = load double, ptr %8, align 8, !tbaa !60
  %75 = fneg double %73
  %76 = call double @llvm.fmuladd.f64(double %75, double %74, double 1.000000e+00)
  %77 = call double @sqrt(double noundef %76) #8, !tbaa !45
  store double %77, ptr %13, align 8, !tbaa !60
  %78 = load double, ptr %11, align 8, !tbaa !60
  %79 = call double @llvm.fabs.f64(double %78)
  %80 = fcmp ole double %79, 1.000000e-10
  br i1 %80, label %81, label %87

81:                                               ; preds = %72
  %82 = load ptr, ptr %6, align 8, !tbaa !3
  %83 = getelementptr inbounds nuw %struct.PJconsts, ptr %82, i32 0, i32 61
  %84 = load double, ptr %83, align 8, !tbaa !44
  %85 = getelementptr inbounds nuw %struct.PJ_LP, ptr %4, i32 0, i32 1
  store double %84, ptr %85, align 8, !tbaa !65
  %86 = getelementptr inbounds nuw %struct.PJ_LP, ptr %4, i32 0, i32 0
  store double 0.000000e+00, ptr %86, align 8, !tbaa !63
  br label %208

87:                                               ; preds = %72
  %88 = load ptr, ptr %7, align 8, !tbaa !41
  %89 = getelementptr inbounds nuw %"struct.(anonymous namespace)::pj_ortho_data", ptr %88, i32 0, i32 5
  %90 = load i32, ptr %89, align 8, !tbaa !50
  switch i32 %90, label %173 [
    i32 0, label %91
    i32 1, label %99
    i32 2, label %104
    i32 3, label %120
  ]

91:                                               ; preds = %87
  %92 = getelementptr inbounds nuw %struct.PJ_XY, ptr %5, i32 0, i32 1
  %93 = load double, ptr %92, align 8, !tbaa !68
  %94 = fneg double %93
  %95 = getelementptr inbounds nuw %struct.PJ_XY, ptr %5, i32 0, i32 1
  store double %94, ptr %95, align 8, !tbaa !68
  %96 = load double, ptr %8, align 8, !tbaa !60
  %97 = call double @acos(double noundef %96) #8, !tbaa !45
  %98 = getelementptr inbounds nuw %struct.PJ_LP, ptr %4, i32 0, i32 1
  store double %97, ptr %98, align 8, !tbaa !65
  br label %173

99:                                               ; preds = %87
  %100 = load double, ptr %8, align 8, !tbaa !60
  %101 = call double @acos(double noundef %100) #8, !tbaa !45
  %102 = fneg double %101
  %103 = getelementptr inbounds nuw %struct.PJ_LP, ptr %4, i32 0, i32 1
  store double %102, ptr %103, align 8, !tbaa !65
  br label %173

104:                                              ; preds = %87
  %105 = getelementptr inbounds nuw %struct.PJ_XY, ptr %5, i32 0, i32 1
  %106 = load double, ptr %105, align 8, !tbaa !68
  %107 = load double, ptr %8, align 8, !tbaa !60
  %108 = fmul double %106, %107
  %109 = load double, ptr %11, align 8, !tbaa !60
  %110 = fdiv double %108, %109
  %111 = getelementptr inbounds nuw %struct.PJ_LP, ptr %4, i32 0, i32 1
  store double %110, ptr %111, align 8, !tbaa !65
  %112 = load double, ptr %8, align 8, !tbaa !60
  %113 = getelementptr inbounds nuw %struct.PJ_XY, ptr %5, i32 0, i32 0
  %114 = load double, ptr %113, align 8, !tbaa !66
  %115 = fmul double %114, %112
  store double %115, ptr %113, align 8, !tbaa !66
  %116 = load double, ptr %13, align 8, !tbaa !60
  %117 = load double, ptr %11, align 8, !tbaa !60
  %118 = fmul double %116, %117
  %119 = getelementptr inbounds nuw %struct.PJ_XY, ptr %5, i32 0, i32 1
  store double %118, ptr %119, align 8, !tbaa !68
  br label %156

120:                                              ; preds = %87
  %121 = load double, ptr %13, align 8, !tbaa !60
  %122 = load ptr, ptr %7, align 8, !tbaa !41
  %123 = getelementptr inbounds nuw %"struct.(anonymous namespace)::pj_ortho_data", ptr %122, i32 0, i32 0
  %124 = load double, ptr %123, align 8, !tbaa !46
  %125 = getelementptr inbounds nuw %struct.PJ_XY, ptr %5, i32 0, i32 1
  %126 = load double, ptr %125, align 8, !tbaa !68
  %127 = load double, ptr %8, align 8, !tbaa !60
  %128 = fmul double %126, %127
  %129 = load ptr, ptr %7, align 8, !tbaa !41
  %130 = getelementptr inbounds nuw %"struct.(anonymous namespace)::pj_ortho_data", ptr %129, i32 0, i32 1
  %131 = load double, ptr %130, align 8, !tbaa !49
  %132 = fmul double %128, %131
  %133 = load double, ptr %11, align 8, !tbaa !60
  %134 = fdiv double %132, %133
  %135 = call double @llvm.fmuladd.f64(double %121, double %124, double %134)
  %136 = getelementptr inbounds nuw %struct.PJ_LP, ptr %4, i32 0, i32 1
  store double %135, ptr %136, align 8, !tbaa !65
  %137 = load double, ptr %13, align 8, !tbaa !60
  %138 = load ptr, ptr %7, align 8, !tbaa !41
  %139 = getelementptr inbounds nuw %"struct.(anonymous namespace)::pj_ortho_data", ptr %138, i32 0, i32 0
  %140 = load double, ptr %139, align 8, !tbaa !46
  %141 = getelementptr inbounds nuw %struct.PJ_LP, ptr %4, i32 0, i32 1
  %142 = load double, ptr %141, align 8, !tbaa !65
  %143 = fneg double %140
  %144 = call double @llvm.fmuladd.f64(double %143, double %142, double %137)
  %145 = load double, ptr %11, align 8, !tbaa !60
  %146 = fmul double %144, %145
  %147 = getelementptr inbounds nuw %struct.PJ_XY, ptr %5, i32 0, i32 1
  store double %146, ptr %147, align 8, !tbaa !68
  %148 = load double, ptr %8, align 8, !tbaa !60
  %149 = load ptr, ptr %7, align 8, !tbaa !41
  %150 = getelementptr inbounds nuw %"struct.(anonymous namespace)::pj_ortho_data", ptr %149, i32 0, i32 1
  %151 = load double, ptr %150, align 8, !tbaa !49
  %152 = fmul double %148, %151
  %153 = getelementptr inbounds nuw %struct.PJ_XY, ptr %5, i32 0, i32 0
  %154 = load double, ptr %153, align 8, !tbaa !66
  %155 = fmul double %154, %152
  store double %155, ptr %153, align 8, !tbaa !66
  br label %156

156:                                              ; preds = %120, %104
  %157 = getelementptr inbounds nuw %struct.PJ_LP, ptr %4, i32 0, i32 1
  %158 = load double, ptr %157, align 8, !tbaa !65
  %159 = call double @llvm.fabs.f64(double %158)
  %160 = fcmp oge double %159, 1.000000e+00
  br i1 %160, label %161, label %167

161:                                              ; preds = %156
  %162 = getelementptr inbounds nuw %struct.PJ_LP, ptr %4, i32 0, i32 1
  %163 = load double, ptr %162, align 8, !tbaa !65
  %164 = fcmp olt double %163, 0.000000e+00
  %165 = select i1 %164, double 0xBFF921FB54442D18, double 0x3FF921FB54442D18
  %166 = getelementptr inbounds nuw %struct.PJ_LP, ptr %4, i32 0, i32 1
  store double %165, ptr %166, align 8, !tbaa !65
  br label %172

167:                                              ; preds = %156
  %168 = getelementptr inbounds nuw %struct.PJ_LP, ptr %4, i32 0, i32 1
  %169 = load double, ptr %168, align 8, !tbaa !65
  %170 = call double @asin(double noundef %169) #8, !tbaa !45
  %171 = getelementptr inbounds nuw %struct.PJ_LP, ptr %4, i32 0, i32 1
  store double %170, ptr %171, align 8, !tbaa !65
  br label %172

172:                                              ; preds = %167, %161
  br label %173

173:                                              ; preds = %87, %172, %99, %91
  %174 = getelementptr inbounds nuw %struct.PJ_XY, ptr %5, i32 0, i32 1
  %175 = load double, ptr %174, align 8, !tbaa !68
  %176 = fcmp oeq double %175, 0.000000e+00
  br i1 %176, label %177, label %199

177:                                              ; preds = %173
  %178 = load ptr, ptr %7, align 8, !tbaa !41
  %179 = getelementptr inbounds nuw %"struct.(anonymous namespace)::pj_ortho_data", ptr %178, i32 0, i32 5
  %180 = load i32, ptr %179, align 8, !tbaa !50
  %181 = icmp eq i32 %180, 3
  br i1 %181, label %187, label %182

182:                                              ; preds = %177
  %183 = load ptr, ptr %7, align 8, !tbaa !41
  %184 = getelementptr inbounds nuw %"struct.(anonymous namespace)::pj_ortho_data", ptr %183, i32 0, i32 5
  %185 = load i32, ptr %184, align 8, !tbaa !50
  %186 = icmp eq i32 %185, 2
  br i1 %186, label %187, label %199

187:                                              ; preds = %182, %177
  %188 = getelementptr inbounds nuw %struct.PJ_XY, ptr %5, i32 0, i32 0
  %189 = load double, ptr %188, align 8, !tbaa !66
  %190 = fcmp oeq double %189, 0.000000e+00
  br i1 %190, label %191, label %192

191:                                              ; preds = %187
  br label %197

192:                                              ; preds = %187
  %193 = getelementptr inbounds nuw %struct.PJ_XY, ptr %5, i32 0, i32 0
  %194 = load double, ptr %193, align 8, !tbaa !66
  %195 = fcmp olt double %194, 0.000000e+00
  %196 = select i1 %195, double 0xBFF921FB54442D18, double 0x3FF921FB54442D18
  br label %197

197:                                              ; preds = %192, %191
  %198 = phi double [ 0.000000e+00, %191 ], [ %196, %192 ]
  br label %205

199:                                              ; preds = %182, %173
  %200 = getelementptr inbounds nuw %struct.PJ_XY, ptr %5, i32 0, i32 0
  %201 = load double, ptr %200, align 8, !tbaa !66
  %202 = getelementptr inbounds nuw %struct.PJ_XY, ptr %5, i32 0, i32 1
  %203 = load double, ptr %202, align 8, !tbaa !68
  %204 = call double @atan2(double noundef %201, double noundef %203) #8, !tbaa !45
  br label %205

205:                                              ; preds = %199, %197
  %206 = phi double [ %198, %197 ], [ %204, %199 ]
  %207 = getelementptr inbounds nuw %struct.PJ_LP, ptr %4, i32 0, i32 0
  store double %206, ptr %207, align 8, !tbaa !63
  br label %208

208:                                              ; preds = %205, %81
  store i32 1, ptr %12, align 4
  call void @llvm.lifetime.end.p0(i64 8, ptr %13) #8
  br label %209

209:                                              ; preds = %208, %68
  call void @llvm.lifetime.end.p0(i64 8, ptr %11) #8
  call void @llvm.lifetime.end.p0(i64 8, ptr %10) #8
  call void @llvm.lifetime.end.p0(i64 8, ptr %9) #8
  call void @llvm.lifetime.end.p0(i64 8, ptr %8) #8
  call void @llvm.lifetime.end.p0(i64 8, ptr %7) #8
  %210 = load { double, double }, ptr %4, align 8
  ret { double, double } %210
}