; Function Attrs: mustprogress uwtable
define internal { double, double } @_ZL15ortho_s_inverse5PJ_XYP8PJconsts(double %0, double %1, ptr noundef %2) #0 {
  %4 = getelementptr inbounds nuw i8, ptr %2, i64 88
  %5 = load ptr, ptr %4, align 8, !tbaa !40
  %6 = getelementptr inbounds nuw i8, ptr %5, i64 56
  %7 = load double, ptr %6, align 8, !tbaa !57
  %8 = getelementptr inbounds nuw i8, ptr %5, i64 48
  %9 = load double, ptr %8, align 8, !tbaa !56
  %10 = fmul double %1, %9
  %11 = tail call double @llvm.fmuladd.f64(double %7, double %0, double %10)
  %12 = getelementptr inbounds nuw i8, ptr %2, i64 488
  %13 = load double, ptr %12, align 8, !tbaa !58
  %14 = fdiv double %11, %13
  %15 = fneg double %9
  %16 = fmul double %1, %7
  %17 = tail call double @llvm.fmuladd.f64(double %15, double %0, double %16)
  %18 = fdiv double %17, %13
  %19 = tail call double @hypot(double noundef %14, double noundef %18) #6, !tbaa !42
  %20 = fcmp ogt double %19, 1.000000e+00
  br i1 %20, label %21, label %26

21:                                               ; preds = %3
  %22 = fadd double %19, -1.000000e+00
  %23 = fcmp ogt double %22, 1.000000e-10
  br i1 %23, label %24, label %26

24:                                               ; preds = %21
  %25 = tail call i32 @proj_errno_set(ptr noundef nonnull %2, i32 noundef 2050)
  br label %75

26:                                               ; preds = %21, %3
  %.0 = phi double [ %19, %3 ], [ 1.000000e+00, %21 ]
  %27 = fneg double %.0
  %28 = tail call double @llvm.fmuladd.f64(double %27, double %.0, double 1.000000e+00)
  %29 = tail call double @sqrt(double noundef %28) #6, !tbaa !42
  %30 = tail call double @llvm.fabs.f64(double %19)
  %31 = fcmp ugt double %30, 1.000000e-10
  br i1 %31, label %35, label %32

32:                                               ; preds = %26
  %33 = getelementptr inbounds nuw i8, ptr %2, i64 448
  %34 = load double, ptr %33, align 8, !tbaa !41
  br label %75

35:                                               ; preds = %26
  %36 = getelementptr inbounds nuw i8, ptr %5, i64 40
  %37 = load i32, ptr %36, align 8, !tbaa !47
  switch i32 %37, label %66 [
    i32 0, label %38
    i32 1, label %41
    i32 2, label %44
    i32 3, label %47
  ]

38:                                               ; preds = %35
  %39 = fneg double %18
  %40 = tail call double @acos(double noundef %.0) #6, !tbaa !42
  br label %.thread

41:                                               ; preds = %35
  %42 = tail call double @acos(double noundef %.0) #6, !tbaa !42
  %43 = fneg double %42
  br label %.thread

44:                                               ; preds = %35
  %45 = fmul double %18, %.0
  %46 = fdiv double %45, %19
  br label %58

47:                                               ; preds = %35
  %48 = load double, ptr %5, align 8, !tbaa !43
  %49 = fmul double %18, %.0
  %50 = getelementptr inbounds nuw i8, ptr %5, i64 8
  %51 = load double, ptr %50, align 8, !tbaa !46
  %52 = fmul double %49, %51
  %53 = fdiv double %52, %19
  %54 = tail call double @llvm.fmuladd.f64(double %29, double %48, double %53)
  %55 = fneg double %48
  %56 = tail call double @llvm.fmuladd.f64(double %55, double %54, double %29)
  %57 = fmul double %.0, %51
  br label %58

58:                                               ; preds = %47, %44
  %.pn = phi double [ %57, %47 ], [ %.0, %44 ]
  %.pn57 = phi double [ %56, %47 ], [ %29, %44 ]
  %.sroa.4.3 = phi double [ %54, %47 ], [ %46, %44 ]
  %.sroa.11.1 = fmul double %19, %.pn57
  %.sroa.0.1 = fmul double %14, %.pn
  %59 = tail call double @llvm.fabs.f64(double %.sroa.4.3)
  %60 = fcmp ult double %59, 1.000000e+00
  br i1 %60, label %64, label %61

61:                                               ; preds = %58
  %62 = fcmp olt double %.sroa.4.3, 0.000000e+00
  %63 = select i1 %62, double 0xBFF921FB54442D18, double 0x3FF921FB54442D18
  br label %66

64:                                               ; preds = %58
  %65 = tail call double @asin(double noundef %.sroa.4.3) #6, !tbaa !42
  br label %66

66:                                               ; preds = %61, %64, %35
  %.sroa.0.0 = phi double [ %14, %35 ], [ %.sroa.0.1, %61 ], [ %.sroa.0.1, %64 ]
  %.sroa.11.0 = phi double [ %18, %35 ], [ %.sroa.11.1, %61 ], [ %.sroa.11.1, %64 ]
  %.sroa.4.2 = phi double [ 0x7FF0000000000000, %35 ], [ %63, %61 ], [ %65, %64 ]
  %67 = fcmp oeq double %.sroa.11.0, 0.000000e+00
  %68 = and i32 %37, -2
  %switch = icmp eq i32 %68, 2
  %or.cond = and i1 %switch, %67
  br i1 %or.cond, label %69, label %.thread

69:                                               ; preds = %66
  %70 = fcmp oeq double %.sroa.0.0, 0.000000e+00
  br i1 %70, label %75, label %71

71:                                               ; preds = %69
  %72 = fcmp olt double %.sroa.0.0, 0.000000e+00
  %73 = select i1 %72, double 0xBFF921FB54442D18, double 0x3FF921FB54442D18
  br label %75

.thread:                                          ; preds = %38, %41, %66
  %.sroa.4.265 = phi double [ %.sroa.4.2, %66 ], [ %40, %38 ], [ %43, %41 ]
  %.sroa.11.064 = phi double [ %.sroa.11.0, %66 ], [ %39, %38 ], [ %18, %41 ]
  %.sroa.0.063 = phi double [ %.sroa.0.0, %66 ], [ %14, %38 ], [ %14, %41 ]
  %74 = tail call double @atan2(double noundef %.sroa.0.063, double noundef %.sroa.11.064) #6, !tbaa !42
  br label %75

75:                                               ; preds = %32, %71, %69, %.thread, %24
  %.sroa.051.0 = phi double [ 0x7FF0000000000000, %24 ], [ 0.000000e+00, %32 ], [ %74, %.thread ], [ %73, %71 ], [ 0.000000e+00, %69 ]
  %.sroa.4.0 = phi double [ 0x7FF0000000000000, %24 ], [ %34, %32 ], [ %.sroa.4.265, %.thread ], [ %.sroa.4.2, %71 ], [ %.sroa.4.2, %69 ]
  %.fca.0.insert = insertvalue { double, double } poison, double %.sroa.051.0, 0
  %.fca.1.insert = insertvalue { double, double } %.fca.0.insert, double %.sroa.4.0, 1
  ret { double, double } %.fca.1.insert
}